target datalayout = "e-m:e-p270:32:32-p271:32:32-p272:64:64-i64:64-i128:128-f80:128-n8:16:32:64-S128"
target triple = "x86_64-pc-linux-gnu"

%struct._ir_hashtab = type { ptr, i32, i32, i32, i32 }

; Function Attrs: nounwind uwtable
define hidden void @ir_hashtab_free(ptr noundef %0) #0 {
  %2 = alloca ptr, align 8
  %3 = alloca i32, align 4
  %4 = alloca ptr, align 8
  store ptr %0, ptr %2, align 8
  %5 = load ptr, ptr %2, align 8
  %6 = getelementptr inbounds %struct._ir_hashtab, ptr %5, i32 0, i32 1
  %7 = load i32, ptr %6, align 8
  %8 = sub nsw i32 0, %7
  store i32 %8, ptr %3, align 4
  %9 = load ptr, ptr %2, align 8
  %10 = getelementptr inbounds %struct._ir_hashtab, ptr %9, i32 0, i32 0
  %11 = load ptr, ptr %10, align 8
  %12 = load i32, ptr %3, align 4
  %13 = zext i32 %12 to i64
  %14 = mul i64 %13, 4
  %15 = sub i64 0, %14
  %16 = getelementptr inbounds i8, ptr %11, i64 %15
  store ptr %16, ptr %4, align 8
  %17 = load ptr, ptr %4, align 8
  call void @_efree(ptr noundef %17)
  %18 = load ptr, ptr %2, align 8
  %19 = getelementptr inbounds %struct._ir_hashtab, ptr %18, i32 0, i32 0
  store ptr null, ptr %19, align 8
  ret void
}