; Function Attrs: nounwind uwtable
define hidden void @ir_hashtab_free(ptr nocapture noundef %0) local_unnamed_addr #0 {
  %2 = getelementptr inbounds i8, ptr %0, i64 8
  %3 = load i32, ptr %2, align 8
  %4 = sub nsw i32 0, %3
  %5 = load ptr, ptr %0, align 8
  %6 = zext i32 %4 to i64
  %.neg = mul nsw i64 %6, -4
  %7 = getelementptr inbounds i8, ptr %5, i64 %.neg
  tail call void @_efree(ptr noundef %7) #20
  store ptr null, ptr %0, align 8
  ret void
}